target datalayout = "e-m:e-p270:32:32-p271:32:32-p272:64:64-i64:64-i128:128-f80:128-n8:16:32:64-S128"
target triple = "x86_64-pc-linux-gnu"

%struct.CVodeMemRec = type { ptr, double, ptr, ptr, i32, i32, double, double, ptr, i32, i32, ptr, ptr, i32, i32, ptr, i32, i32, double, double, ptr, i32, i32, i32, i32, ptr, ptr, ptr, i32, i32, ptr, ptr, ptr, i32, double, i32, i32, double, ptr, ptr, ptr, i32, ptr, ptr, i32, i32, i32, double, ptr, ptr, ptr, [13 x ptr], ptr, ptr, ptr, ptr, ptr, ptr, ptr, ptr, ptr, [13 x ptr], ptr, ptr, ptr, ptr, [13 x ptr], ptr, ptr, ptr, ptr, ptr, i32, [13 x ptr], ptr, ptr, ptr, ptr, ptr, i32, i32, double, i32, i32, i32, i32, i32, double, double, double, double, double, double, double, double, [14 x double], [6 x double], [13 x double], double, double, double, double, double, double, double, double, i32, double, double, i32, double, double, ptr, i32, i64, i32, i32, i32, double, double, double, double, double, double, double, double, double, double, double, double, i64, i32, i64, i64, i64, i64, i64, i64, i64, i64, i64, ptr, i64, i64, ptr, i64, i64, ptr, i64, i64, i64, i64, i64, i64, i32, double, double, double, i64, i64, i64, i64, i64, i64, ptr, i32, ptr, i32, ptr, i32, ptr, i32, i32, i64, i32, ptr, i32, ptr, ptr, ptr, ptr, ptr, ptr, i32, i32, ptr, ptr, ptr, ptr, ptr, i64, double, i32, i32, i64, double, double, double, i32, i32, double, i32, i32, i32, i32, i32, i32, i32, i32, i32, i32, i32, i32, i32, i32, i32, i32, ptr, i64, i32, [6 x [4 x double]], i32, i64, ptr, i32, ptr, ptr, double, double, double, ptr, ptr, ptr, double, double, i32, i32, i64, ptr, i32, ptr, i32, i32, [13 x double], ptr, ptr, ptr, i32, ptr, i32 }
%struct.CVadjMemRec = type { double, double, i32, i32, double, i32, double, ptr, i32, ptr, i32, ptr, i32, ptr, i64, i64, ptr, i64, i32, ptr, ptr, ptr, ptr, i32, i32, i32, i32, [13 x ptr], [13 x ptr], [13 x double], ptr, ptr }
%struct.CVdtpntMemRec = type { double, ptr }
%struct.CVpolynomialDataMemRec = type { ptr, ptr, i32 }

; Function Attrs: nounwind uwtable
define internal i32 @CVApolynomialStorePnt(ptr noundef %0, ptr noundef %1) #0 {
  %3 = alloca i32, align 4
  %4 = alloca ptr, align 8
  %5 = alloca ptr, align 8
  %6 = alloca ptr, align 8
  %7 = alloca ptr, align 8
  %8 = alloca i32, align 4
  %9 = alloca i32, align 4
  %10 = alloca i32, align 4
  store ptr %0, ptr %4, align 8, !tbaa !11
  store ptr %1, ptr %5, align 8, !tbaa !37
  call void @llvm.lifetime.start.p0(i64 8, ptr %6) #6
  call void @llvm.lifetime.start.p0(i64 8, ptr %7) #6
  call void @llvm.lifetime.start.p0(i64 4, ptr %8) #6
  call void @llvm.lifetime.start.p0(i64 4, ptr %9) #6
  %11 = load ptr, ptr %4, align 8, !tbaa !11
  %12 = getelementptr inbounds nuw %struct.CVodeMemRec, ptr %11, i32 0, i32 248
  %13 = load ptr, ptr %12, align 8, !tbaa !15
  store ptr %13, ptr %6, align 8, !tbaa !13
  %14 = load ptr, ptr %5, align 8, !tbaa !37
  %15 = getelementptr inbounds nuw %struct.CVdtpntMemRec, ptr %14, i32 0, i32 1
  %16 = load ptr, ptr %15, align 8, !tbaa !67
  store ptr %16, ptr %7, align 8, !tbaa !80
  %17 = load ptr, ptr %4, align 8, !tbaa !11
  %18 = getelementptr inbounds nuw %struct.CVodeMemRec, ptr %17, i32 0, i32 51
  %19 = getelementptr inbounds [13 x ptr], ptr %18, i64 0, i64 0
  %20 = load ptr, ptr %19, align 8, !tbaa !70
  %21 = load ptr, ptr %7, align 8, !tbaa !80
  %22 = getelementptr inbounds nuw %struct.CVpolynomialDataMemRec, ptr %21, i32 0, i32 0
  %23 = load ptr, ptr %22, align 8, !tbaa !82
  call void @N_VScale(double noundef 1.000000e+00, ptr noundef %20, ptr noundef %23)
  %24 = load ptr, ptr %6, align 8, !tbaa !13
  %25 = getelementptr inbounds nuw %struct.CVadjMemRec, ptr %24, i32 0, i32 25
  %26 = load i32, ptr %25, align 8, !tbaa !44
  %27 = icmp ne i32 %26, 0
  br i1 %27, label %28, label %64

28:                                               ; preds = %2
  store i32 0, ptr %8, align 4, !tbaa !9
  br label %29

29:                                               ; preds = %42, %28
  %30 = load i32, ptr %8, align 4, !tbaa !9
  %31 = load ptr, ptr %4, align 8, !tbaa !11
  %32 = getelementptr inbounds nuw %struct.CVodeMemRec, ptr %31, i32 0, i32 23
  %33 = load i32, ptr %32, align 8, !tbaa !57
  %34 = icmp slt i32 %30, %33
  br i1 %34, label %35, label %45

35:                                               ; preds = %29
  %36 = load ptr, ptr %4, align 8, !tbaa !11
  %37 = getelementptr inbounds nuw %struct.CVodeMemRec, ptr %36, i32 0, i32 244
  %38 = load ptr, ptr %37, align 8, !tbaa !72
  %39 = load i32, ptr %8, align 4, !tbaa !9
  %40 = sext i32 %39 to i64
  %41 = getelementptr inbounds double, ptr %38, i64 %40
  store double 1.000000e+00, ptr %41, align 8, !tbaa !69
  br label %42

42:                                               ; preds = %35
  %43 = load i32, ptr %8, align 4, !tbaa !9
  %44 = add nsw i32 %43, 1
  store i32 %44, ptr %8, align 4, !tbaa !9
  br label %29

45:                                               ; preds = %29
  %46 = load ptr, ptr %4, align 8, !tbaa !11
  %47 = getelementptr inbounds nuw %struct.CVodeMemRec, ptr %46, i32 0, i32 23
  %48 = load i32, ptr %47, align 8, !tbaa !57
  %49 = load ptr, ptr %4, align 8, !tbaa !11
  %50 = getelementptr inbounds nuw %struct.CVodeMemRec, ptr %49, i32 0, i32 244
  %51 = load ptr, ptr %50, align 8, !tbaa !72
  %52 = load ptr, ptr %4, align 8, !tbaa !11
  %53 = getelementptr inbounds nuw %struct.CVodeMemRec, ptr %52, i32 0, i32 66
  %54 = getelementptr inbounds [13 x ptr], ptr %53, i64 0, i64 0
  %55 = load ptr, ptr %54, align 8, !tbaa !71
  %56 = load ptr, ptr %7, align 8, !tbaa !80
  %57 = getelementptr inbounds nuw %struct.CVpolynomialDataMemRec, ptr %56, i32 0, i32 1
  %58 = load ptr, ptr %57, align 8, !tbaa !84
  %59 = call i32 @N_VScaleVectorArray(i32 noundef %48, ptr noundef %51, ptr noundef %55, ptr noundef %58)
  store i32 %59, ptr %9, align 4, !tbaa !9
  %60 = load i32, ptr %9, align 4, !tbaa !9
  %61 = icmp ne i32 %60, 0
  br i1 %61, label %62, label %63

62:                                               ; preds = %45
  store i32 -28, ptr %3, align 4
  store i32 1, ptr %10, align 4
  br label %70

63:                                               ; preds = %45
  br label %64

64:                                               ; preds = %63, %2
  %65 = load ptr, ptr %4, align 8, !tbaa !11
  %66 = getelementptr inbounds nuw %struct.CVodeMemRec, ptr %65, i32 0, i32 193
  %67 = load i32, ptr %66, align 4, !tbaa !89
  %68 = load ptr, ptr %7, align 8, !tbaa !80
  %69 = getelementptr inbounds nuw %struct.CVpolynomialDataMemRec, ptr %68, i32 0, i32 2
  store i32 %67, ptr %69, align 8, !tbaa !87
  store i32 0, ptr %3, align 4
  store i32 1, ptr %10, align 4
  br label %70

70:                                               ; preds = %64, %62
  call void @llvm.lifetime.end.p0(i64 4, ptr %9) #6
  call void @llvm.lifetime.end.p0(i64 4, ptr %8) #6
  call void @llvm.lifetime.end.p0(i64 8, ptr %7) #6
  call void @llvm.lifetime.end.p0(i64 8, ptr %6) #6
  %71 = load i32, ptr %3, align 4
  ret i32 %71
}