; Function Attrs: nounwind uwtable
define internal range(i32 -28, 1) i32 @CVApolynomialStorePnt(ptr noundef readonly captures(none) %0, ptr noundef readonly captures(none) %1) #0 {
  %3 = getelementptr inbounds nuw i8, ptr %0, i64 2672
  %4 = load ptr, ptr %3, align 8, !tbaa !3
  %5 = getelementptr inbounds nuw i8, ptr %1, i64 8
  %6 = load ptr, ptr %5, align 8, !tbaa !58
  %7 = getelementptr inbounds nuw i8, ptr %0, i64 336
  %8 = load ptr, ptr %7, align 8, !tbaa !68
  %9 = load ptr, ptr %6, align 8, !tbaa !76
  tail call void @N_VScale(double noundef 1.000000e+00, ptr noundef %8, ptr noundef %9) #9
  %10 = getelementptr inbounds nuw i8, ptr %4, i64 184
  %11 = load i32, ptr %10, align 8, !tbaa !38
  %.not = icmp eq i32 %11, 0
  br i1 %.not, label %24, label %.preheader

.preheader:                                       ; preds = %2
  %12 = getelementptr inbounds nuw i8, ptr %0, i64 144
  %13 = load i32, ptr %12, align 8, !tbaa !51
  %14 = icmp sgt i32 %13, 0
  %15 = getelementptr inbounds nuw i8, ptr %0, i64 2640
  %16 = load ptr, ptr %15, align 8, !tbaa !66
  br i1 %14, label %.lr.ph, label %._crit_edge

.lr.ph:                                           ; preds = %.preheader
  %wide.trip.count = zext nneg i32 %13 to i64
  br label %17

17:                                               ; preds = %.lr.ph, %17
  %indvars.iv = phi i64 [ 0, %.lr.ph ], [ %indvars.iv.next, %17 ]
  %18 = getelementptr inbounds nuw double, ptr %16, i64 %indvars.iv
  store double 1.000000e+00, ptr %18, align 8, !tbaa !67
  %indvars.iv.next = add nuw nsw i64 %indvars.iv, 1
  %exitcond.not = icmp eq i64 %indvars.iv.next, %wide.trip.count
  br i1 %exitcond.not, label %._crit_edge, label %17

._crit_edge:                                      ; preds = %17, %.preheader
  %19 = getelementptr inbounds nuw i8, ptr %0, i64 648
  %20 = load ptr, ptr %19, align 8, !tbaa !69
  %21 = getelementptr inbounds nuw i8, ptr %6, i64 8
  %22 = load ptr, ptr %21, align 8, !tbaa !78
  %23 = tail call i32 @N_VScaleVectorArray(i32 noundef %13, ptr noundef %16, ptr noundef %20, ptr noundef %22) #9
  %.not19 = icmp eq i32 %23, 0
  br i1 %.not19, label %24, label %28

24:                                               ; preds = %._crit_edge, %2
  %25 = getelementptr inbounds nuw i8, ptr %0, i64 2044
  %26 = load i32, ptr %25, align 4, !tbaa !80
  %27 = getelementptr inbounds nuw i8, ptr %6, i64 16
  store i32 %26, ptr %27, align 8, !tbaa !79
  br label %28

28:                                               ; preds = %._crit_edge, %24
  %.0 = phi i32 [ 0, %24 ], [ -28, %._crit_edge ]
  ret i32 %.0
}